target datalayout = "e-m:e-p270:32:32-p271:32:32-p272:64:64-i64:64-i128:128-f80:128-n8:16:32:64-S128"
target triple = "x86_64-pc-linux-gnu"

%struct.SN_env = type { ptr, i32, i32, i32, i32, i32, ptr, ptr }

@s_90 = internal constant [10 x i8] c"\CE\B9\CE\B5\CF\83\CF\84\CE\B5", align 1
@s_91 = internal constant [8 x i8] c"\CE\B9\CE\B5\CF\83\CF\84", align 1
@s_92 = internal constant [8 x i8] c"\CE\B5\CF\83\CF\84\CE\B5", align 1
@s_93 = internal constant [8 x i8] c"\CE\B9\CE\B5\CF\83\CF\84", align 1

; Function Attrs: nounwind uwtable
define internal i32 @r_step5f(ptr noundef %0) #0 {
  %2 = alloca i32, align 4
  %3 = alloca ptr, align 8
  %4 = alloca i32, align 4
  %5 = alloca i32, align 4
  %6 = alloca i32, align 4
  %7 = alloca i32, align 4
  %8 = alloca i32, align 4
  %9 = alloca i32, align 4
  store ptr %0, ptr %3, align 8
  call void @llvm.lifetime.start.p0(i64 4, ptr %4) #3
  %10 = load ptr, ptr %3, align 8
  %11 = getelementptr inbounds nuw %struct.SN_env, ptr %10, i32 0, i32 2
  %12 = load i32, ptr %11, align 4
  %13 = load ptr, ptr %3, align 8
  %14 = getelementptr inbounds nuw %struct.SN_env, ptr %13, i32 0, i32 1
  %15 = load i32, ptr %14, align 8
  %16 = sub i32 %12, %15
  store i32 %16, ptr %4, align 4
  %17 = load ptr, ptr %3, align 8
  %18 = getelementptr inbounds nuw %struct.SN_env, ptr %17, i32 0, i32 1
  %19 = load i32, ptr %18, align 8
  %20 = load ptr, ptr %3, align 8
  %21 = getelementptr inbounds nuw %struct.SN_env, ptr %20, i32 0, i32 5
  store i32 %19, ptr %21, align 8
  %22 = load ptr, ptr %3, align 8
  %23 = call i32 @eq_s_b(ptr noundef %22, i32 noundef 10, ptr noundef @s_90)
  %24 = icmp ne i32 %23, 0
  br i1 %24, label %26, label %25

25:                                               ; preds = %1
  br label %116

26:                                               ; preds = %1
  %27 = load ptr, ptr %3, align 8
  %28 = getelementptr inbounds nuw %struct.SN_env, ptr %27, i32 0, i32 1
  %29 = load i32, ptr %28, align 8
  %30 = load ptr, ptr %3, align 8
  %31 = getelementptr inbounds nuw %struct.SN_env, ptr %30, i32 0, i32 4
  store i32 %29, ptr %31, align 4
  call void @llvm.lifetime.start.p0(i64 4, ptr %5) #3
  %32 = load ptr, ptr %3, align 8
  %33 = call i32 @slice_del(ptr noundef %32)
  store i32 %33, ptr %5, align 4
  %34 = load i32, ptr %5, align 4
  %35 = icmp slt i32 %34, 0
  br i1 %35, label %36, label %38

36:                                               ; preds = %26
  %37 = load i32, ptr %5, align 4
  store i32 %37, ptr %2, align 4
  store i32 1, ptr %6, align 4
  br label %39

38:                                               ; preds = %26
  store i32 0, ptr %6, align 4
  br label %39

39:                                               ; preds = %38, %36
  call void @llvm.lifetime.end.p0(i64 4, ptr %5) #3
  %40 = load i32, ptr %6, align 4
  switch i32 %40, label %124 [
    i32 0, label %41
  ]

41:                                               ; preds = %39
  %42 = load ptr, ptr %3, align 8
  %43 = getelementptr inbounds nuw %struct.SN_env, ptr %42, i32 0, i32 7
  %44 = load ptr, ptr %43, align 8
  %45 = getelementptr inbounds i32, ptr %44, i64 0
  store i32 0, ptr %45, align 4
  %46 = load ptr, ptr %3, align 8
  %47 = getelementptr inbounds nuw %struct.SN_env, ptr %46, i32 0, i32 1
  %48 = load i32, ptr %47, align 8
  %49 = load ptr, ptr %3, align 8
  %50 = getelementptr inbounds nuw %struct.SN_env, ptr %49, i32 0, i32 5
  store i32 %48, ptr %50, align 8
  %51 = load ptr, ptr %3, align 8
  %52 = getelementptr inbounds nuw %struct.SN_env, ptr %51, i32 0, i32 1
  %53 = load i32, ptr %52, align 8
  %54 = load ptr, ptr %3, align 8
  %55 = getelementptr inbounds nuw %struct.SN_env, ptr %54, i32 0, i32 4
  store i32 %53, ptr %55, align 4
  %56 = load ptr, ptr %3, align 8
  %57 = getelementptr inbounds nuw %struct.SN_env, ptr %56, i32 0, i32 1
  %58 = load i32, ptr %57, align 8
  %59 = sub i32 %58, 1
  %60 = load ptr, ptr %3, align 8
  %61 = getelementptr inbounds nuw %struct.SN_env, ptr %60, i32 0, i32 3
  %62 = load i32, ptr %61, align 8
  %63 = icmp sle i32 %59, %62
  br i1 %63, label %90, label %64

64:                                               ; preds = %41
  %65 = load ptr, ptr %3, align 8
  %66 = getelementptr inbounds nuw %struct.SN_env, ptr %65, i32 0, i32 0
  %67 = load ptr, ptr %66, align 8
  %68 = load ptr, ptr %3, align 8
  %69 = getelementptr inbounds nuw %struct.SN_env, ptr %68, i32 0, i32 1
  %70 = load i32, ptr %69, align 8
  %71 = sub i32 %70, 1
  %72 = sext i32 %71 to i64
  %73 = getelementptr inbounds i8, ptr %67, i64 %72
  %74 = load i8, ptr %73, align 1
  %75 = zext i8 %74 to i32
  %76 = icmp ne i32 %75, 128
  br i1 %76, label %77, label %91

77:                                               ; preds = %64
  %78 = load ptr, ptr %3, align 8
  %79 = getelementptr inbounds nuw %struct.SN_env, ptr %78, i32 0, i32 0
  %80 = load ptr, ptr %79, align 8
  %81 = load ptr, ptr %3, align 8
  %82 = getelementptr inbounds nuw %struct.SN_env, ptr %81, i32 0, i32 1
  %83 = load i32, ptr %82, align 8
  %84 = sub i32 %83, 1
  %85 = sext i32 %84 to i64
  %86 = getelementptr inbounds i8, ptr %80, i64 %85
  %87 = load i8, ptr %86, align 1
  %88 = zext i8 %87 to i32
  %89 = icmp ne i32 %88, 134
  br i1 %89, label %90, label %91

90:                                               ; preds = %77, %41
  br label %116

91:                                               ; preds = %77, %64
  %92 = load ptr, ptr %3, align 8
  %93 = call i32 @find_among_b(ptr noundef %92, ptr noundef @a_45, i32 noundef 6)
  %94 = icmp ne i32 %93, 0
  br i1 %94, label %96, label %95

95:                                               ; preds = %91
  br label %116

96:                                               ; preds = %91
  %97 = load ptr, ptr %3, align 8
  %98 = getelementptr inbounds nuw %struct.SN_env, ptr %97, i32 0, i32 1
  %99 = load i32, ptr %98, align 8
  %100 = load ptr, ptr %3, align 8
  %101 = getelementptr inbounds nuw %struct.SN_env, ptr %100, i32 0, i32 3
  %102 = load i32, ptr %101, align 8
  %103 = icmp sgt i32 %99, %102
  br i1 %103, label %104, label %105

104:                                              ; preds = %96
  br label %116

105:                                              ; preds = %96
  call void @llvm.lifetime.start.p0(i64 4, ptr %7) #3
  %106 = load ptr, ptr %3, align 8
  %107 = call i32 @slice_from_s(ptr noundef %106, i32 noundef 8, ptr noundef @s_91)
  store i32 %107, ptr %7, align 4
  %108 = load i32, ptr %7, align 4
  %109 = icmp slt i32 %108, 0
  br i1 %109, label %110, label %112

110:                                              ; preds = %105
  %111 = load i32, ptr %7, align 4
  store i32 %111, ptr %2, align 4
  store i32 1, ptr %6, align 4
  br label %113

112:                                              ; preds = %105
  store i32 0, ptr %6, align 4
  br label %113

113:                                              ; preds = %112, %110
  call void @llvm.lifetime.end.p0(i64 4, ptr %7) #3
  %114 = load i32, ptr %6, align 4
  switch i32 %114, label %124 [
    i32 0, label %115
  ]

115:                                              ; preds = %113
  br label %116

116:                                              ; preds = %115, %104, %95, %90, %25
  %117 = load ptr, ptr %3, align 8
  %118 = getelementptr inbounds nuw %struct.SN_env, ptr %117, i32 0, i32 2
  %119 = load i32, ptr %118, align 4
  %120 = load i32, ptr %4, align 4
  %121 = sub i32 %119, %120
  %122 = load ptr, ptr %3, align 8
  %123 = getelementptr inbounds nuw %struct.SN_env, ptr %122, i32 0, i32 1
  store i32 %121, ptr %123, align 8
  store i32 0, ptr %6, align 4
  br label %124

124:                                              ; preds = %116, %113, %39
  call void @llvm.lifetime.end.p0(i64 4, ptr %4) #3
  %125 = load i32, ptr %6, align 4
  switch i32 %125, label %192 [
    i32 0, label %126
    i32 1, label %190
  ]

126:                                              ; preds = %124
  %127 = load ptr, ptr %3, align 8
  %128 = getelementptr inbounds nuw %struct.SN_env, ptr %127, i32 0, i32 1
  %129 = load i32, ptr %128, align 8
  %130 = load ptr, ptr %3, align 8
  %131 = getelementptr inbounds nuw %struct.SN_env, ptr %130, i32 0, i32 5
  store i32 %129, ptr %131, align 8
  %132 = load ptr, ptr %3, align 8
  %133 = call i32 @eq_s_b(ptr noundef %132, i32 noundef 8, ptr noundef @s_92)
  %134 = icmp ne i32 %133, 0
  br i1 %134, label %136, label %135

135:                                              ; preds = %126
  store i32 0, ptr %2, align 4
  br label %190

136:                                              ; preds = %126
  %137 = load ptr, ptr %3, align 8
  %138 = getelementptr inbounds nuw %struct.SN_env, ptr %137, i32 0, i32 1
  %139 = load i32, ptr %138, align 8
  %140 = load ptr, ptr %3, align 8
  %141 = getelementptr inbounds nuw %struct.SN_env, ptr %140, i32 0, i32 4
  store i32 %139, ptr %141, align 4
  call void @llvm.lifetime.start.p0(i64 4, ptr %8) #3
  %142 = load ptr, ptr %3, align 8
  %143 = call i32 @slice_del(ptr noundef %142)
  store i32 %143, ptr %8, align 4
  %144 = load i32, ptr %8, align 4
  %145 = icmp slt i32 %144, 0
  br i1 %145, label %146, label %148

146:                                              ; preds = %136
  %147 = load i32, ptr %8, align 4
  store i32 %147, ptr %2, align 4
  store i32 1, ptr %6, align 4
  br label %149

148:                                              ; preds = %136
  store i32 0, ptr %6, align 4
  br label %149

149:                                              ; preds = %148, %146
  call void @llvm.lifetime.end.p0(i64 4, ptr %8) #3
  %150 = load i32, ptr %6, align 4
  switch i32 %150, label %192 [
    i32 0, label %151
    i32 1, label %190
  ]

151:                                              ; preds = %149
  %152 = load ptr, ptr %3, align 8
  %153 = getelementptr inbounds nuw %struct.SN_env, ptr %152, i32 0, i32 7
  %154 = load ptr, ptr %153, align 8
  %155 = getelementptr inbounds i32, ptr %154, i64 0
  store i32 0, ptr %155, align 4
  %156 = load ptr, ptr %3, align 8
  %157 = getelementptr inbounds nuw %struct.SN_env, ptr %156, i32 0, i32 1
  %158 = load i32, ptr %157, align 8
  %159 = load ptr, ptr %3, align 8
  %160 = getelementptr inbounds nuw %struct.SN_env, ptr %159, i32 0, i32 5
  store i32 %158, ptr %160, align 8
  %161 = load ptr, ptr %3, align 8
  %162 = getelementptr inbounds nuw %struct.SN_env, ptr %161, i32 0, i32 1
  %163 = load i32, ptr %162, align 8
  %164 = load ptr, ptr %3, align 8
  %165 = getelementptr inbounds nuw %struct.SN_env, ptr %164, i32 0, i32 4
  store i32 %163, ptr %165, align 4
  %166 = load ptr, ptr %3, align 8
  %167 = call i32 @find_among_b(ptr noundef %166, ptr noundef @a_46, i32 noundef 9)
  %168 = icmp ne i32 %167, 0
  br i1 %168, label %170, label %169

169:                                              ; preds = %151
  store i32 0, ptr %2, align 4
  br label %190

170:                                              ; preds = %151
  %171 = load ptr, ptr %3, align 8
  %172 = getelementptr inbounds nuw %struct.SN_env, ptr %171, i32 0, i32 1
  %173 = load i32, ptr %172, align 8
  %174 = load ptr, ptr %3, align 8
  %175 = getelementptr inbounds nuw %struct.SN_env, ptr %174, i32 0, i32 3
  %176 = load i32, ptr %175, align 8
  %177 = icmp sgt i32 %173, %176
  br i1 %177, label %178, label %179

178:                                              ; preds = %170
  store i32 0, ptr %2, align 4
  br label %190

179:                                              ; preds = %170
  call void @llvm.lifetime.start.p0(i64 4, ptr %9) #3
  %180 = load ptr, ptr %3, align 8
  %181 = call i32 @slice_from_s(ptr noundef %180, i32 noundef 8, ptr noundef @s_93)
  store i32 %181, ptr %9, align 4
  %182 = load i32, ptr %9, align 4
  %183 = icmp slt i32 %182, 0
  br i1 %183, label %184, label %186

184:                                              ; preds = %179
  %185 = load i32, ptr %9, align 4
  store i32 %185, ptr %2, align 4
  store i32 1, ptr %6, align 4
  br label %187

186:                                              ; preds = %179
  store i32 0, ptr %6, align 4
  br label %187

187:                                              ; preds = %186, %184
  call void @llvm.lifetime.end.p0(i64 4, ptr %9) #3
  %188 = load i32, ptr %6, align 4
  switch i32 %188, label %192 [
    i32 0, label %189
    i32 1, label %190
  ]

189:                                              ; preds = %187
  store i32 1, ptr %2, align 4
  br label %190

190:                                              ; preds = %189, %187, %178, %169, %149, %135, %124
  %191 = load i32, ptr %2, align 4
  ret i32 %191

192:                                              ; preds = %187, %149, %124
  unreachable
}