; Function Attrs: nounwind uwtable
define internal fastcc i32 @r_step5f(ptr noundef initializes((24, 28)) %0) unnamed_addr #0 {
  %2 = getelementptr inbounds nuw i8, ptr %0, i64 12
  %3 = load i32, ptr %2, align 4
  %4 = getelementptr inbounds nuw i8, ptr %0, i64 8
  %5 = load i32, ptr %4, align 8
  %.neg = sub i32 %5, %3
  %6 = getelementptr inbounds nuw i8, ptr %0, i64 24
  store i32 %5, ptr %6, align 8
  %7 = tail call i32 @eq_s_b(ptr noundef %0, i32 noundef 10, ptr noundef nonnull @s_90) #2
  %.not = icmp eq i32 %7, 0
  br i1 %.not, label %34, label %8

8:                                                ; preds = %1
  %9 = load i32, ptr %4, align 8
  %10 = getelementptr inbounds nuw i8, ptr %0, i64 20
  store i32 %9, ptr %10, align 4
  %11 = tail call i32 @slice_del(ptr noundef nonnull %0) #2
  %12 = icmp sgt i32 %11, -1
  br i1 %12, label %13, label %.thread

13:                                               ; preds = %8
  %14 = getelementptr inbounds nuw i8, ptr %0, i64 40
  %15 = load ptr, ptr %14, align 8
  store i32 0, ptr %15, align 4
  %16 = load i32, ptr %4, align 8
  store i32 %16, ptr %6, align 8
  store i32 %16, ptr %10, align 4
  %17 = add i32 %16, -1
  %18 = getelementptr inbounds nuw i8, ptr %0, i64 16
  %19 = load i32, ptr %18, align 8
  %.not65 = icmp sgt i32 %17, %19
  br i1 %.not65, label %20, label %34

20:                                               ; preds = %13
  %21 = load ptr, ptr %0, align 8
  %22 = sext i32 %17 to i64
  %23 = getelementptr inbounds i8, ptr %21, i64 %22
  %24 = load i8, ptr %23, align 1
  switch i8 %24, label %34 [
    i8 -128, label %25
    i8 -122, label %25
  ]

25:                                               ; preds = %20, %20
  %26 = tail call i32 @find_among_b(ptr noundef nonnull %0, ptr noundef nonnull @a_45, i32 noundef 6) #2
  %.not68 = icmp eq i32 %26, 0
  br i1 %.not68, label %34, label %27

27:                                               ; preds = %25
  %28 = load i32, ptr %4, align 8
  %29 = load i32, ptr %18, align 8
  %30 = icmp sgt i32 %28, %29
  br i1 %30, label %34, label %31

31:                                               ; preds = %27
  %32 = tail call i32 @slice_from_s(ptr noundef nonnull %0, i32 noundef 8, ptr noundef nonnull @s_91) #2
  %33 = icmp sgt i32 %32, -1
  br i1 %33, label %34, label %.thread

34:                                               ; preds = %20, %31, %27, %25, %13, %1
  %35 = load i32, ptr %2, align 4
  %36 = add i32 %35, %.neg
  store i32 %36, ptr %4, align 8
  store i32 %36, ptr %6, align 8
  %37 = tail call i32 @eq_s_b(ptr noundef nonnull %0, i32 noundef 8, ptr noundef nonnull @s_92) #2
  %.not69 = icmp eq i32 %37, 0
  br i1 %.not69, label %.thread, label %38

38:                                               ; preds = %34
  %39 = load i32, ptr %4, align 8
  %40 = getelementptr inbounds nuw i8, ptr %0, i64 20
  store i32 %39, ptr %40, align 4
  %41 = tail call i32 @slice_del(ptr noundef nonnull %0) #2
  %42 = icmp sgt i32 %41, -1
  br i1 %42, label %43, label %.thread

43:                                               ; preds = %38
  %44 = getelementptr inbounds nuw i8, ptr %0, i64 40
  %45 = load ptr, ptr %44, align 8
  store i32 0, ptr %45, align 4
  %46 = load i32, ptr %4, align 8
  store i32 %46, ptr %6, align 8
  store i32 %46, ptr %40, align 4
  %47 = tail call i32 @find_among_b(ptr noundef nonnull %0, ptr noundef nonnull @a_46, i32 noundef 9) #2
  %.not70 = icmp eq i32 %47, 0
  br i1 %.not70, label %.thread, label %48

48:                                               ; preds = %43
  %49 = load i32, ptr %4, align 8
  %50 = getelementptr inbounds nuw i8, ptr %0, i64 16
  %51 = load i32, ptr %50, align 8
  %52 = icmp sgt i32 %49, %51
  br i1 %52, label %.thread, label %53

53:                                               ; preds = %48
  %54 = tail call i32 @slice_from_s(ptr noundef nonnull %0, i32 noundef 8, ptr noundef nonnull @s_93) #2
  %55 = icmp sgt i32 %54, -1
  %spec.select = select i1 %55, i32 1, i32 %54
  br label %.thread

.thread:                                          ; preds = %8, %31, %53, %38, %48, %43, %34
  %.4 = phi i32 [ %41, %38 ], [ 0, %34 ], [ 0, %43 ], [ 0, %48 ], [ %spec.select, %53 ], [ %11, %8 ], [ %32, %31 ]
  ret i32 %.4
}